Certificate:
    Data:
        Version: 3 (0x2)
        Serial Number:
            1f:ac:49:06:cc:38:20:41:41:3d:07:fa:f2:02:25:d7
        Signature Algorithm: sha256WithRSAEncryption
        Issuer: CN=Easy-RSA CA
        Validity
            Not Before: May 10 13:42:28 2024 GMT
            Not After : Apr 25 13:42:28 2027 GMT
        Subject: CN=client
        Subject Public Key Info:
            Public Key Algorithm: rsaEncryption
                RSA Public-Key: (2048 bit)
                Modulus:
                    00:af:38:6c:01:e3:e5:bd:77:c9:70:cc:9d:de:ad:
                    99:fd:f8:f6:7b:45:06:de:a9:a1:6f:32:2a:3d:f4:
                    14:f9:e8:62:c9:be:49:f1:e3:75:27:c1:f2:bd:a0:
                    56:8c:16:a5:ba:d1:65:c9:e4:66:ff:f7:c0:80:07:
                    b0:eb:a8:f4:e0:91:c1:da:fd:cb:66:1c:ed:38:bb:
                    ba:04:85:2f:b7:85:38:aa:b9:a3:82:d6:ed:11:bc:
                    cb:c1:ae:6a:00:7d:ec:9f:52:2e:d1:a1:8b:28:a6:
                    43:cd:f6:5c:87:be:56:a0:7f:ce:ff:18:e5:03:1e:
                    3c:1b:17:53:21:0e:d2:1b:ce:57:5c:47:80:aa:73:
                    75:d7:9b:e6:6d:c8:f3:80:f2:32:c0:b5:da:14:f6:
                    6f:06:91:7c:15:ca:fe:38:50:af:82:1d:28:ed:c3:
                    2a:6a:50:b0:c9:90:de:02:1f:4f:b0:fd:6a:1e:6b:
                    24:be:a8:f9:2f:5a:2f:12:47:8c:0c:cc:a5:0d:1c:
                    6d:eb:cf:53:7a:28:d3:c4:94:5c:83:43:f2:fd:20:
                    d5:7d:76:c7:3f:1c:2e:a3:53:6e:58:0a:5e:ed:bc:
                    95:9b:48:f6:ed:3e:ce:60:32:72:07:c8:b9:d5:cb:
                    4a:92:89:c8:c5:1a:51:98:2c:92:c7:e4:16:de:3f:
                    f7:81
                Exponent: 65537 (0x10001)
        X509v3 extensions:
            X509v3 Basic Constraints: 
                CA:FALSE
            X509v3 Subject Key Identifier: 
                7E:D4:30:4F:B3:B0:7D:F1:B1:73:3A:47:47:89:3B:42:25:99:E0:90
            X509v3 Authority Key Identifier: 
                keyid:A2:EC:C0:40:5A:A8:9F:DE:9D:27:49:B6:BF:9A:C6:52:44:0A:07:C8
                DirName:/CN=Easy-RSA CA
                serial:2F:99:E0:9F:E7:DE:5B:EF:DE:9D:93:13:05:F5:F7:98:AC:C0:E3:85

            X509v3 Extended Key Usage: 
                TLS Web Client Authentication
            X509v3 Key Usage: 
                Digital Signature
    Signature Algorithm: sha256WithRSAEncryption
         04:2a:bc:ae:f3:cd:3d:05:00:4a:29:e6:e1:e4:a7:e4:66:19:
         4e:13:8e:3f:09:68:e9:c9:b0:84:d3:53:87:29:63:9a:4c:42:
         36:10:87:75:9e:40:8e:3a:b4:aa:49:36:3b:86:e6:68:d6:9d:
         31:fd:51:f8:80:b2:ee:64:52:3b:11:2a:0f:73:fc:65:94:37:
         bc:2c:e2:25:88:42:fa:16:79:c8:84:4c:e7:52:3f:bf:0c:51:
         b3:a7:95:34:6b:c5:bf:ca:5e:ae:8e:65:b6:09:4d:ea:40:22:
         66:7a:7c:f6:b9:db:fe:f3:cf:7d:73:8d:b6:1d:27:ca:96:28:
         b6:41:88:56:1a:6c:b1:47:5e:1c:ae:9c:f4:99:3e:c9:fa:9b:
         56:66:b2:79:ac:73:3f:9a:30:08:96:c5:bc:ed:d3:35:59:fd:
         a7:0f:c5:26:d6:68:3b:ba:e3:9c:13:2e:1d:9f:26:92:e6:06:
         90:f2:6a:f8:76:b9:97:38:a7:25:41:2f:65:6c:46:a3:3a:28:
         ea:9f:86:4b:7b:d1:5f:a4:c1:d4:16:cc:45:71:0b:1f:7f:63:
         8a:fa:85:dd:be:18:18:88:d7:a1:a4:a8:cb:e6:4d:dc:6e:a5:
         7e:ff:ef:01:c0:1d:52:31:7d:75:5d:46:1a:1d:01:f9:35:76:
         d8:3c:73:25
-----BEGIN CERTIFICATE-----
MIIDVDCCAjygAwIBAgIQH6xJBsw4IEFBPQf68gIl1zANBgkqhkiG9w0BAQsFADAW
MRQwEgYDVQQDDAtFYXN5LVJTQSBDQTAeFw0yNDA1MTAxMzQyMjhaFw0yNzA0MjUx
MzQyMjhaMBExDzANBgNVBAMMBmNsaWVudDCCASIwDQYJKoZIhvcNAQEBBQADggEP
ADCCAQoCggEBAK84bAHj5b13yXDMnd6tmf349ntFBt6poW8yKj30FPnoYsm+SfHj
dSfB8r2gVowWpbrRZcnkZv/3wIAHsOuo9OCRwdr9y2Yc7Ti7ugSFL7eFOKq5o4LW
7RG8y8GuagB97J9SLtGhiyimQ832XIe+VqB/zv8Y5QMePBsXUyEO0hvOV1xHgKpz
ddeb5m3I84DyMsC12hT2bwaRfBXK/jhQr4IdKO3DKmpQsMmQ3gIfT7D9ah5rJL6o
+S9aLxJHjAzMpQ0cbevPU3oo08SUXIND8v0g1X12xz8cLqNTblgKXu28lZtI9u0+
zmAycgfIudXLSpKJyMUaUZgsksfkFt4/94ECAwEAAaOBojCBnzAJBgNVHRMEAjAA
MB0GA1UdDgQWBBR+1DBPs7B98bFzOkdHiTtCJZngkDBRBgNVHSMESjBIgBSi7MBA
Wqif3p0nSba/msZSRAoHyKEapBgwFjEUMBIGA1UEAwwLRWFzeS1SU0EgQ0GCFC+Z
4J/n3lvv3p2TEwX195iswOOFMBMGA1UdJQQMMAoGCCsGAQUFBwMCMAsGA1UdDwQE
AwIHgDANBgkqhkiG9w0BAQsFAAOCAQEABCq8rvPNPQUASinm4eSn5GYZThOOPwlo
6cmwhNNThyljmkxCNhCHdZ5Ajjq0qkk2O4bmaNadMf1R+ICy7mRSOxEqD3P8ZZQ3
vCziJYhC+hZ5yIRM51I/vwxRs6eVNGvFv8pero5ltglN6kAiZnp89rnb/vPPfXON
th0nypYotkGIVhpssUdeHK6c9Jk+yfqbVmayeaxzP5owCJbFvO3TNVn9pw/FJtZo
O7rjnBMuHZ8mkuYGkPJq+Ha5lzinJUEvZWxGozoo6p+GS3vRX6TB1BbMRXELH39j
ivqF3b4YGIjXoaSoy+ZN3G6lfv/vAcAdUjF9dV1GGh0B+TV22DxzJQ==
-----END CERTIFICATE-----
