Certificate:
    Data:
        Version: 3 (0x2)
        Serial Number:
            c7:25:8d:15:05:0b:ca:da:91:b0:61:9d:38:b9:60:dc
        Signature Algorithm: sha256WithRSAEncryption
        Issuer: CN=Easy-RSA CA
        Validity
            Not Before: May 10 13:42:13 2024 GMT
            Not After : Apr 25 13:42:13 2027 GMT
        Subject: CN=server
        Subject Public Key Info:
            Public Key Algorithm: rsaEncryption
                RSA Public-Key: (2048 bit)
                Modulus:
                    00:ca:91:b9:26:44:4f:fc:8a:bc:e1:45:90:2e:69:
                    06:e4:15:67:00:05:b3:89:a4:0a:1b:40:37:58:76:
                    ad:75:58:ae:07:d5:af:cc:6f:d0:2d:5d:e5:96:51:
                    be:bc:6a:83:bf:5b:df:61:12:fb:17:83:ff:1c:1b:
                    ae:c7:a0:38:65:d1:d8:f7:de:3f:ac:19:f9:f3:b6:
                    93:e1:ac:bf:c3:9a:88:13:28:41:cf:d1:f2:46:1b:
                    7a:0a:e5:03:d6:70:11:b3:5d:17:9c:4c:26:09:92:
                    41:4a:0f:95:9b:5c:35:b1:1e:96:ce:04:39:b2:af:
                    71:ba:ce:a1:20:72:96:b8:e2:0d:fa:80:08:fc:7f:
                    1e:a5:e4:a5:cd:3b:d8:a9:01:e2:bb:7a:12:ca:e0:
                    36:7c:90:cd:31:37:f5:7a:5a:f8:0f:80:6e:6d:5d:
                    96:3a:aa:6f:5b:95:ba:34:c5:5b:c7:f2:fd:1f:af:
                    7b:09:e2:80:59:0c:3e:f4:df:04:81:5c:94:c0:fb:
                    9c:9e:7f:0d:61:4a:61:8e:3f:19:1e:1f:6e:b6:b1:
                    3a:2a:81:5f:2a:18:9f:99:78:12:4a:5d:d2:1d:ef:
                    11:c3:53:2d:23:08:b7:c2:51:f2:03:3a:61:f0:a1:
                    2e:a3:97:f4:5b:d3:af:3a:78:be:8c:33:41:e5:5e:
                    02:b1
                Exponent: 65537 (0x10001)
        X509v3 extensions:
            X509v3 Basic Constraints: 
                CA:FALSE
            X509v3 Subject Key Identifier: 
                6E:AE:86:BA:CF:3F:EC:90:5B:CD:87:E7:39:E8:41:BB:CB:83:18:7E
            X509v3 Authority Key Identifier: 
                keyid:A2:EC:C0:40:5A:A8:9F:DE:9D:27:49:B6:BF:9A:C6:52:44:0A:07:C8
                DirName:/CN=Easy-RSA CA
                serial:2F:99:E0:9F:E7:DE:5B:EF:DE:9D:93:13:05:F5:F7:98:AC:C0:E3:85

            X509v3 Extended Key Usage: 
                TLS Web Server Authentication
            X509v3 Key Usage: 
                Digital Signature, Key Encipherment
            X509v3 Subject Alternative Name: 
                DNS:server
    Signature Algorithm: sha256WithRSAEncryption
         8a:aa:9c:80:36:96:f4:da:04:0e:25:fc:e5:9e:3a:c7:60:76:
         36:50:56:de:3d:50:49:d3:d4:4e:34:b7:f0:8b:de:d5:9a:4d:
         be:7b:66:9b:08:25:27:71:de:9a:96:b1:09:70:05:34:3d:74:
         0b:c6:51:35:da:22:57:58:f9:71:d5:b2:49:99:ad:af:0f:6d:
         1a:22:cd:71:98:b1:b5:50:2d:f6:1c:22:32:eb:19:fd:d9:f8:
         bc:e9:08:91:a5:bc:ac:1e:df:08:ad:34:37:3f:86:a9:71:57:
         42:05:e7:6f:63:ce:ac:9f:06:9a:bd:48:47:1c:ee:0f:a1:a3:
         6a:eb:11:8d:00:29:a6:f4:f8:65:59:d1:3c:e7:43:99:68:8c:
         1f:1c:65:d7:a4:35:4e:e7:f1:69:a2:83:69:8a:1f:00:84:d3:
         18:ae:65:d4:00:59:34:b2:0c:ff:53:e9:78:f1:7f:41:61:60:
         9f:1f:1f:94:74:00:77:b2:ba:80:7d:8c:6b:eb:80:de:e5:78:
         5b:35:a4:7e:6e:27:e4:88:47:da:4f:73:63:38:73:9c:ed:8c:
         09:80:75:00:72:33:40:da:67:bc:2d:21:13:ca:29:71:dd:5f:
         cc:6a:63:36:2d:a1:92:25:44:51:77:26:83:c2:fb:58:98:be:
         dd:e4:1d:c5
-----BEGIN CERTIFICATE-----
MIIDaDCCAlCgAwIBAgIRAMcljRUFC8rakbBhnTi5YNwwDQYJKoZIhvcNAQELBQAw
FjEUMBIGA1UEAwwLRWFzeS1SU0EgQ0EwHhcNMjQwNTEwMTM0MjEzWhcNMjcwNDI1
MTM0MjEzWjARMQ8wDQYDVQQDDAZzZXJ2ZXIwggEiMA0GCSqGSIb3DQEBAQUAA4IB
DwAwggEKAoIBAQDKkbkmRE/8irzhRZAuaQbkFWcABbOJpAobQDdYdq11WK4H1a/M
b9AtXeWWUb68aoO/W99hEvsXg/8cG67HoDhl0dj33j+sGfnztpPhrL/DmogTKEHP
0fJGG3oK5QPWcBGzXRecTCYJkkFKD5WbXDWxHpbOBDmyr3G6zqEgcpa44g36gAj8
fx6l5KXNO9ipAeK7ehLK4DZ8kM0xN/V6WvgPgG5tXZY6qm9blbo0xVvH8v0fr3sJ
4oBZDD703wSBXJTA+5yefw1hSmGOPxkeH262sToqgV8qGJ+ZeBJKXdId7xHDUy0j
CLfCUfIDOmHwoS6jl/Rb0686eL6MM0HlXgKxAgMBAAGjgbUwgbIwCQYDVR0TBAIw
ADAdBgNVHQ4EFgQUbq6Gus8/7JBbzYfnOehBu8uDGH4wUQYDVR0jBEowSIAUouzA
QFqon96dJ0m2v5rGUkQKB8ihGqQYMBYxFDASBgNVBAMMC0Vhc3ktUlNBIENBghQv
meCf595b796dkxMF9feYrMDjhTATBgNVHSUEDDAKBggrBgEFBQcDATALBgNVHQ8E
BAMCBaAwEQYDVR0RBAowCIIGc2VydmVyMA0GCSqGSIb3DQEBCwUAA4IBAQCKqpyA
Npb02gQOJfzlnjrHYHY2UFbePVBJ09RONLfwi97Vmk2+e2abCCUncd6alrEJcAU0
PXQLxlE12iJXWPlx1bJJma2vD20aIs1xmLG1UC32HCIy6xn92fi86QiRpbysHt8I
rTQ3P4apcVdCBedvY86snwaavUhHHO4PoaNq6xGNACmm9PhlWdE850OZaIwfHGXX
pDVO5/FpooNpih8AhNMYrmXUAFk0sgz/U+l48X9BYWCfHx+UdAB3srqAfYxr64De
5XhbNaR+bifkiEfaT3NjOHOc7YwJgHUAcjNA2me8LSETyilx3V/MamM2LaGSJURR
dyaDwvtYmL7d5B3F
-----END CERTIFICATE-----
